target datalayout = "e-m:e-p270:32:32-p271:32:32-p272:64:64-i64:64-i128:128-f80:128-n8:16:32:64-S128"
target triple = "x86_64-pc-linux-gnu"

%struct._zval_struct = type { %union._zend_value, %union.anon, %union.anon.2 }
%union._zend_value = type { i64 }
%union.anon = type { i32 }
%union.anon.2 = type { i32 }
%struct._zend_refcounted_h = type { i32, %union.anon.3 }
%union.anon.3 = type { i32 }
%struct._zend_object = type { %struct._zend_refcounted_h, i32, i32, ptr, ptr, ptr, [1 x %struct._zval_struct] }
%struct._spl_ptr_llist_element = type { ptr, ptr, %struct._zval_struct }
%struct._spl_dllist_it = type { %struct._zend_object_iterator, ptr, i32, i32 }
%struct._zend_object_iterator = type { %struct._zend_object, %struct._zval_struct, ptr, i64 }

; Function Attrs: nounwind uwtable
define internal void @spl_dllist_it_dtor(ptr noundef %0) #0 {
  %2 = alloca ptr, align 8
  %3 = alloca ptr, align 8
  store ptr %0, ptr %2, align 8, !tbaa !148
  call void @llvm.lifetime.start.p0(i64 8, ptr %3) #14
  %4 = load ptr, ptr %2, align 8, !tbaa !148
  store ptr %4, ptr %3, align 8, !tbaa !116
  %5 = load ptr, ptr %3, align 8, !tbaa !116
  %6 = getelementptr inbounds nuw %struct._spl_dllist_it, ptr %5, i32 0, i32 1
  %7 = load ptr, ptr %6, align 8, !tbaa !123
  %8 = icmp ne ptr %7, null
  br i1 %8, label %9, label %22

9:                                                ; preds = %1
  %10 = load ptr, ptr %3, align 8, !tbaa !116
  %11 = getelementptr inbounds nuw %struct._spl_dllist_it, ptr %10, i32 0, i32 1
  %12 = load ptr, ptr %11, align 8, !tbaa !123
  %13 = getelementptr inbounds nuw %struct._spl_ptr_llist_element, ptr %12, i32 0, i32 2
  %14 = getelementptr inbounds nuw %struct._zval_struct, ptr %13, i32 0, i32 2
  %15 = load i32, ptr %14, align 4, !tbaa !11
  %16 = add i32 %15, -1
  store i32 %16, ptr %14, align 4, !tbaa !11
  %17 = icmp ne i32 %16, 0
  br i1 %17, label %22, label %18

18:                                               ; preds = %9
  %19 = load ptr, ptr %3, align 8, !tbaa !116
  %20 = getelementptr inbounds nuw %struct._spl_dllist_it, ptr %19, i32 0, i32 1
  %21 = load ptr, ptr %20, align 8, !tbaa !123
  call void @_efree(ptr noundef %21)
  br label %22

22:                                               ; preds = %18, %9, %1
  %23 = load ptr, ptr %3, align 8, !tbaa !116
  %24 = getelementptr inbounds nuw %struct._spl_dllist_it, ptr %23, i32 0, i32 0
  %25 = getelementptr inbounds nuw %struct._zend_object_iterator, ptr %24, i32 0, i32 1
  call void @zval_ptr_dtor(ptr noundef %25)
  call void @llvm.lifetime.end.p0(i64 8, ptr %3) #14
  ret void
}