; Function Attrs: nounwind uwtable
define internal void @spl_dllist_it_dtor(ptr noundef %0) #0 {
  %2 = getelementptr inbounds nuw i8, ptr %0, i64 88
  %3 = load ptr, ptr %2, align 8, !tbaa !118
  %.not = icmp eq ptr %3, null
  br i1 %.not, label %10, label %4

4:                                                ; preds = %1
  %5 = getelementptr inbounds nuw i8, ptr %3, i64 28
  %6 = load i32, ptr %5, align 4, !tbaa !4
  %7 = add i32 %6, -1
  store i32 %7, ptr %5, align 4, !tbaa !4
  %.not5 = icmp eq i32 %7, 0
  br i1 %.not5, label %8, label %10

8:                                                ; preds = %4
  %9 = load ptr, ptr %2, align 8, !tbaa !118
  tail call void @_efree(ptr noundef %9) #13
  br label %10

10:                                               ; preds = %8, %4, %1
  %11 = getelementptr inbounds nuw i8, ptr %0, i64 56
  tail call void @zval_ptr_dtor(ptr noundef nonnull %11) #13
  ret void
}